target datalayout = "e-m:e-p270:32:32-p271:32:32-p272:64:64-i64:64-i128:128-f80:128-n8:16:32:64-S128"
target triple = "x86_64-pc-linux-gnu"

; Function Attrs: mustprogress nounwind uwtable
define dso_local noundef zeroext i1 @_ZN4llvm5APInt8tcIsZeroEPKmj(ptr noundef %0, i32 noundef %1) #0 align 2 {
  %3 = alloca i1, align 1
  %4 = alloca ptr, align 8
  %5 = alloca i32, align 4
  %6 = alloca i32, align 4
  store ptr %0, ptr %4, align 8
  store i32 %1, ptr %5, align 4
  store i32 0, ptr %6, align 4
  br label %7

7:                                                ; preds = %20, %2
  %8 = load i32, ptr %6, align 4
  %9 = load i32, ptr %5, align 4
  %10 = icmp ult i32 %8, %9
  br i1 %10, label %11, label %23

11:                                               ; preds = %7
  %12 = load ptr, ptr %4, align 8
  %13 = load i32, ptr %6, align 4
  %14 = zext i32 %13 to i64
  %15 = getelementptr inbounds i64, ptr %12, i64 %14
  %16 = load i64, ptr %15, align 8
  %17 = icmp ne i64 %16, 0
  br i1 %17, label %18, label %19

18:                                               ; preds = %11
  store i1 false, ptr %3, align 1
  br label %24

19:                                               ; preds = %11
  br label %20

20:                                               ; preds = %19
  %21 = load i32, ptr %6, align 4
  %22 = add i32 %21, 1
  store i32 %22, ptr %6, align 4
  br label %7, !llvm.loop !63

23:                                               ; preds = %7
  store i1 true, ptr %3, align 1
  br label %24

24:                                               ; preds = %23, %18
  %25 = load i1, ptr %3, align 1
  ret i1 %25
}